; Function Attrs: mustprogress uwtable
define noundef double @_ZNK8QuantLib10GsrProcess5driftEdd(ptr noundef nonnull align 8 dereferenceable(536) %this, double noundef %t, double noundef %x) unnamed_addr #6 align 2 {
entry:
  %core_ = getelementptr inbounds nuw i8, ptr %this, i64 152
  %call = tail call noundef double @_ZNK8QuantLib6detail14GsrProcessCore1yEd(ptr noundef nonnull align 8 dereferenceable(360) %core_, double noundef %t)
  %call3 = tail call noundef double @_ZNK8QuantLib23ForwardMeasureProcess1D21getForwardMeasureTimeEv(ptr noundef nonnull align 8 dereferenceable(152) %this)
  %call4 = tail call noundef double @_ZNK8QuantLib6detail14GsrProcessCore1GEdd(ptr noundef nonnull align 8 dereferenceable(360) %core_, double noundef %t, double noundef %call3)
  %call.i.i = tail call noundef i32 @_ZNK8QuantLib6detail14GsrProcessCore10lowerIndexEd(ptr noundef nonnull align 8 dereferenceable(360) %core_, double noundef %t)
  %conv.i.i = sext i32 %call.i.i to i64
  %call2.i.i = tail call noundef double @_ZNK8QuantLib6detail14GsrProcessCore3volEm(ptr noundef nonnull align 8 dereferenceable(360) %core_, i64 noundef %conv.i.i)
  %call.i.i6 = tail call noundef i32 @_ZNK8QuantLib6detail14GsrProcessCore10lowerIndexEd(ptr noundef nonnull align 8 dereferenceable(360) %core_, double noundef %t)
  %conv.i.i7 = sext i32 %call.i.i6 to i64
  %call2.i.i8 = tail call noundef double @_ZNK8QuantLib6detail14GsrProcessCore3volEm(ptr noundef nonnull align 8 dereferenceable(360) %core_, i64 noundef %conv.i.i7)
  %0 = fneg double %call2.i.i
  %neg = fmul double %call4, %0
  %1 = tail call double @llvm.fmuladd.f64(double %neg, double %call2.i.i8, double %call)
  %call.i.i10 = tail call noundef i32 @_ZNK8QuantLib6detail14GsrProcessCore10lowerIndexEd(ptr noundef nonnull align 8 dereferenceable(360) %core_, double noundef %t)
  %conv.i.i11 = sext i32 %call.i.i10 to i64
  %call2.i.i12 = tail call noundef double @_ZNK8QuantLib6detail14GsrProcessCore3revEm(ptr noundef nonnull align 8 dereferenceable(360) %core_, i64 noundef %conv.i.i11)
  %neg10 = fneg double %call2.i.i12
  %2 = tail call double @llvm.fmuladd.f64(double %neg10, double %x, double %1)
  ret double %2
}